target datalayout = "e-m:e-p270:32:32-p271:32:32-p272:64:64-i64:64-i128:128-f80:128-n8:16:32:64-S128"
target triple = "x86_64-unknown-linux-gnu"

%class.mpzzp_manager = type { ptr, i8, %class.mpz, %class.mpz, %class.mpz, i8, %class.mpz, %class.mpz, %class.mpz, %class.mpz }
%class.mpz = type { i32, i8, ptr }
%"class.upolynomial::scoped_numeral_vector" = type { %class._scoped_numeral_vector }
%class._scoped_numeral_vector = type { %class.svector, ptr }
%class.svector = type { %class.vector }
%class.vector = type { ptr }
%"class.upolynomial::core_manager" = type { ptr, %class.mpzzp_manager, %class.svector, %class.svector, %class.svector, %class.svector, %class.svector, %class.svector, %class.svector, [6 x %class.svector], %class.svector, %class.svector, %class.svector }

; Function Attrs: mustprogress nounwind uwtable
define linkonce_odr hidden void @_ZN6vectorI3mpzLb0EjEC2Ev(ptr noundef nonnull align 8 dereferenceable(8) %this) unnamed_addr #5 comdat align 2 {
entry:
  %this.addr = alloca ptr, align 8
  store ptr %this, ptr %this.addr, align 8
  %this1 = load ptr, ptr %this.addr, align 8
  %m_data = getelementptr inbounds %class.vector, ptr %this1, i32 0, i32 0
  store ptr null, ptr %m_data, align 8
  ret void
}

; Function Attrs: mustprogress nounwind uwtable
define linkonce_odr hidden void @_ZN7svectorI3mpzjEC2Ev(ptr noundef nonnull align 8 dereferenceable(8) %this) unnamed_addr #5 comdat align 2 {
entry:
  %this.addr = alloca ptr, align 8
  store ptr %this, ptr %this.addr, align 8
  %this1 = load ptr, ptr %this.addr, align 8
  %0 = getelementptr inbounds i8, ptr %this1, i64 0
  call void @llvm.memset.p0.i64(ptr align 8 %0, i8 0, i64 8, i1 false)
  call void @_ZN6vectorI3mpzLb0EjEC2Ev(ptr noundef nonnull align 8 dereferenceable(8) %this1) #3
  ret void
}

; Function Attrs: mustprogress nounwind uwtable
define linkonce_odr hidden noundef ptr @_ZNK6vectorI3mpzLb0EjE4dataEv(ptr noundef nonnull align 8 dereferenceable(8) %this) #5 comdat align 2 {
entry:
  %this.addr = alloca ptr, align 8
  store ptr %this, ptr %this.addr, align 8
  %this1 = load ptr, ptr %this.addr, align 8
  %m_data = getelementptr inbounds %class.vector, ptr %this1, i32 0, i32 0
  %0 = load ptr, ptr %m_data, align 8
  ret ptr %0
}

; Function Attrs: mustprogress nounwind uwtable
define linkonce_odr hidden noundef i32 @_ZNK6vectorI3mpzLb0EjE4sizeEv(ptr noundef nonnull align 8 dereferenceable(8) %this) #5 comdat align 2 {
entry:
  %retval = alloca i32, align 4
  %this.addr = alloca ptr, align 8
  store ptr %this, ptr %this.addr, align 8
  %this1 = load ptr, ptr %this.addr, align 8
  %m_data = getelementptr inbounds %class.vector, ptr %this1, i32 0, i32 0
  %0 = load ptr, ptr %m_data, align 8
  %cmp = icmp eq ptr %0, null
  br i1 %cmp, label %if.then, label %if.end

if.then:                                          ; preds = %entry
  store i32 0, ptr %retval, align 4
  br label %return

if.end:                                           ; preds = %entry
  %m_data2 = getelementptr inbounds %class.vector, ptr %this1, i32 0, i32 0
  %1 = load ptr, ptr %m_data2, align 8
  %arrayidx = getelementptr inbounds i32, ptr %1, i64 -1
  %2 = load i32, ptr %arrayidx, align 4
  store i32 %2, ptr %retval, align 4
  br label %return

return:                                           ; preds = %if.end, %if.then
  %3 = load i32, ptr %retval, align 4
  ret i32 %3
}

; Function Attrs: mustprogress uwtable
define linkonce_odr hidden void @_ZN22_scoped_numeral_vectorI13mpzzp_managerEC2ERS0_(ptr noundef nonnull align 8 dereferenceable(16) %this, ptr noundef nonnull align 8 dereferenceable(136) %m) unnamed_addr #4 comdat align 2 {
entry:
  %this.addr = alloca ptr, align 8
  %m.addr = alloca ptr, align 8
  store ptr %this, ptr %this.addr, align 8
  store ptr %m, ptr %m.addr, align 8
  %this1 = load ptr, ptr %this.addr, align 8
  call void @_ZN7svectorI3mpzjEC2Ev(ptr noundef nonnull align 8 dereferenceable(8) %this1)
  %m_manager = getelementptr inbounds %class._scoped_numeral_vector, ptr %this1, i32 0, i32 1
  %0 = load ptr, ptr %m.addr, align 8
  store ptr %0, ptr %m_manager, align 8
  ret void
}

; Function Attrs: mustprogress uwtable
define linkonce_odr hidden noundef zeroext i1 @_ZN11upolynomial12core_manager2eqERK7svectorI3mpzjES5_(ptr noundef nonnull align 8 dereferenceable(272) %this, ptr noundef nonnull align 8 dereferenceable(8) %p1, ptr noundef nonnull align 8 dereferenceable(8) %p2) #4 comdat align 2 {
entry:
  %this.addr = alloca ptr, align 8
  %p1.addr = alloca ptr, align 8
  %p2.addr = alloca ptr, align 8
  store ptr %this, ptr %this.addr, align 8
  store ptr %p1, ptr %p1.addr, align 8
  store ptr %p2, ptr %p2.addr, align 8
  %this1 = load ptr, ptr %this.addr, align 8
  %0 = load ptr, ptr %p1.addr, align 8
  %call = call noundef i32 @_ZNK6vectorI3mpzLb0EjE4sizeEv(ptr noundef nonnull align 8 dereferenceable(8) %0)
  %1 = load ptr, ptr %p1.addr, align 8
  %call2 = call noundef ptr @_ZNK6vectorI3mpzLb0EjE4dataEv(ptr noundef nonnull align 8 dereferenceable(8) %1)
  %2 = load ptr, ptr %p2.addr, align 8
  %call3 = call noundef i32 @_ZNK6vectorI3mpzLb0EjE4sizeEv(ptr noundef nonnull align 8 dereferenceable(8) %2)
  %3 = load ptr, ptr %p2.addr, align 8
  %call4 = call noundef ptr @_ZNK6vectorI3mpzLb0EjE4dataEv(ptr noundef nonnull align 8 dereferenceable(8) %3)
  %call5 = call noundef zeroext i1 @_ZN11upolynomial12core_manager2eqEjPK3mpzjS3_(ptr noundef nonnull align 8 dereferenceable(272) %this1, i32 noundef %call, ptr noundef %call2, i32 noundef %call3, ptr noundef %call4)
  ret i1 %call5
}

; Function Attrs: mustprogress uwtable
define linkonce_odr hidden void @_ZN11upolynomial21scoped_numeral_vectorC2ER13mpzzp_manager(ptr noundef nonnull align 8 dereferenceable(16) %this, ptr noundef nonnull align 8 dereferenceable(136) %m) unnamed_addr #4 comdat align 2 {
entry:
  %this.addr = alloca ptr, align 8
  %m.addr = alloca ptr, align 8
  store ptr %this, ptr %this.addr, align 8
  store ptr %m, ptr %m.addr, align 8
  %this1 = load ptr, ptr %this.addr, align 8
  %0 = load ptr, ptr %m.addr, align 8
  call void @_ZN22_scoped_numeral_vectorI13mpzzp_managerEC2ERS0_(ptr noundef nonnull align 8 dereferenceable(16) %this1, ptr noundef nonnull align 8 dereferenceable(136) %0)
  ret void
}

; Function Attrs: mustprogress nounwind uwtable
define linkonce_odr hidden noundef nonnull align 8 dereferenceable(136) ptr @_ZNK11upolynomial12core_manager1mEv(ptr noundef nonnull align 8 dereferenceable(272) %this) #5 comdat align 2 {
entry:
  %this.addr = alloca ptr, align 8
  store ptr %this, ptr %this.addr, align 8
  %this1 = load ptr, ptr %this.addr, align 8
  %m_manager = getelementptr inbounds %"class.upolynomial::core_manager", ptr %this1, i32 0, i32 1
  ret ptr %m_manager
}

; Function Attrs: mustprogress uwtable
define hidden noundef zeroext i1 @_ZN11upolynomial21check_individual_liftERNS_12core_managerERK7svectorI3mpzjES1_S6_(ptr noundef nonnull align 8 dereferenceable(272) %zp_upm, ptr noundef nonnull align 8 dereferenceable(8) %A_p, ptr noundef nonnull align 8 dereferenceable(272) %zpe_upm, ptr noundef nonnull align 8 dereferenceable(8) %A_pe) #4 personality ptr @__gxx_personality_v0 {
entry:
  %retval = alloca i1, align 1
  %zp_upm.addr = alloca ptr, align 8
  %A_p.addr = alloca ptr, align 8
  %zpe_upm.addr = alloca ptr, align 8
  %A_pe.addr = alloca ptr, align 8
  %A_pe_p = alloca %"class.upolynomial::scoped_numeral_vector", align 8
  %exn.slot = alloca ptr, align 8
  %ehselector.slot = alloca i32, align 4
  %cleanup.dest.slot = alloca i32, align 4
  store ptr %zp_upm, ptr %zp_upm.addr, align 8
  store ptr %A_p, ptr %A_p.addr, align 8
  store ptr %zpe_upm, ptr %zpe_upm.addr, align 8
  store ptr %A_pe, ptr %A_pe.addr, align 8
  %0 = load ptr, ptr %zp_upm.addr, align 8
  %call = call noundef nonnull align 8 dereferenceable(136) ptr @_ZNK11upolynomial12core_manager1mEv(ptr noundef nonnull align 8 dereferenceable(272) %0)
  call void @_ZN11upolynomial21scoped_numeral_vectorC2ER13mpzzp_manager(ptr noundef nonnull align 8 dereferenceable(16) %A_pe_p, ptr noundef nonnull align 8 dereferenceable(136) %call)
  %1 = load ptr, ptr %zp_upm.addr, align 8
  %2 = load ptr, ptr %A_pe.addr, align 8
  invoke void @_ZN11upolynomial13to_zp_managerERNS_12core_managerERK7svectorI3mpzjERS4_(ptr noundef nonnull align 8 dereferenceable(272) %1, ptr noundef nonnull align 8 dereferenceable(8) %2, ptr noundef nonnull align 8 dereferenceable(8) %A_pe_p)
          to label %invoke.cont unwind label %lpad

invoke.cont:                                      ; preds = %entry
  %3 = load ptr, ptr %zp_upm.addr, align 8
  %4 = load ptr, ptr %A_p.addr, align 8
  %call2 = invoke noundef zeroext i1 @_ZN11upolynomial12core_manager2eqERK7svectorI3mpzjES5_(ptr noundef nonnull align 8 dereferenceable(272) %3, ptr noundef nonnull align 8 dereferenceable(8) %4, ptr noundef nonnull align 8 dereferenceable(8) %A_pe_p)
          to label %invoke.cont1 unwind label %lpad

invoke.cont1:                                     ; preds = %invoke.cont
  br i1 %call2, label %if.end, label %if.then

if.then:                                          ; preds = %invoke.cont1
  store i1 false, ptr %retval, align 1
  store i32 1, ptr %cleanup.dest.slot, align 4
  br label %cleanup

lpad:                                             ; preds = %invoke.cont, %entry
  %5 = landingpad { ptr, i32 }
          cleanup
  %6 = extractvalue { ptr, i32 } %5, 0
  store ptr %6, ptr %exn.slot, align 8
  %7 = extractvalue { ptr, i32 } %5, 1
  store i32 %7, ptr %ehselector.slot, align 4
  call void @_ZN11upolynomial21scoped_numeral_vectorD2Ev(ptr noundef nonnull align 8 dereferenceable(16) %A_pe_p) #3
  br label %eh.resume

if.end:                                           ; preds = %invoke.cont1
  store i1 true, ptr %retval, align 1
  store i32 1, ptr %cleanup.dest.slot, align 4
  br label %cleanup

cleanup:                                          ; preds = %if.end, %if.then
  call void @_ZN11upolynomial21scoped_numeral_vectorD2Ev(ptr noundef nonnull align 8 dereferenceable(16) %A_pe_p) #3
  %8 = load i1, ptr %retval, align 1
  ret i1 %8

eh.resume:                                        ; preds = %lpad
  %exn = load ptr, ptr %exn.slot, align 8
  %sel = load i32, ptr %ehselector.slot, align 4
  %lpad.val = insertvalue { ptr, i32 } poison, ptr %exn, 0
  %lpad.val3 = insertvalue { ptr, i32 } %lpad.val, i32 %sel, 1
  resume { ptr, i32 } %lpad.val3
}