; Function Attrs: mustprogress uwtable
define hidden noundef zeroext i1 @_ZN11upolynomial21check_individual_liftERNS_12core_managerERK7svectorI3mpzjES1_S6_(ptr noundef nonnull align 8 dereferenceable(272) %zp_upm, ptr nocapture noundef nonnull readonly align 8 dereferenceable(8) %A_p, ptr nocapture noundef nonnull readnone align 8 dereferenceable(272) %zpe_upm, ptr noundef nonnull align 8 dereferenceable(8) %A_pe) local_unnamed_addr #3 personality ptr @__gxx_personality_v0 {
entry:
  %A_pe_p = alloca %"class.upolynomial::scoped_numeral_vector", align 8
  %m_manager.i = getelementptr inbounds i8, ptr %zp_upm, i64 8
  store ptr null, ptr %A_pe_p, align 8
  %m_manager.i.i = getelementptr inbounds i8, ptr %A_pe_p, i64 8
  store ptr %m_manager.i, ptr %m_manager.i.i, align 8
  invoke void @_ZN11upolynomial13to_zp_managerERNS_12core_managerERK7svectorI3mpzjERS4_(ptr noundef nonnull align 8 dereferenceable(272) %zp_upm, ptr noundef nonnull align 8 dereferenceable(8) %A_pe, ptr noundef nonnull align 8 dereferenceable(8) %A_pe_p)
          to label %invoke.cont unwind label %lpad

invoke.cont:                                      ; preds = %entry
  %0 = load ptr, ptr %A_p, align 8
  %cmp.i.i = icmp eq ptr %0, null
  br i1 %cmp.i.i, label %_ZNK6vectorI3mpzLb0EjE4sizeEv.exit.i, label %if.end.i.i

if.end.i.i:                                       ; preds = %invoke.cont
  %arrayidx.i.i = getelementptr inbounds i8, ptr %0, i64 -4
  %1 = load i32, ptr %arrayidx.i.i, align 4
  br label %_ZNK6vectorI3mpzLb0EjE4sizeEv.exit.i

_ZNK6vectorI3mpzLb0EjE4sizeEv.exit.i:             ; preds = %if.end.i.i, %invoke.cont
  %retval.0.i.i = phi i32 [ %1, %if.end.i.i ], [ 0, %invoke.cont ]
  %2 = load ptr, ptr %A_pe_p, align 8
  %cmp.i3.i = icmp eq ptr %2, null
  br i1 %cmp.i3.i, label %_ZNK6vectorI3mpzLb0EjE4sizeEv.exit7.i, label %if.end.i4.i

if.end.i4.i:                                      ; preds = %_ZNK6vectorI3mpzLb0EjE4sizeEv.exit.i
  %arrayidx.i5.i = getelementptr inbounds i8, ptr %2, i64 -4
  %3 = load i32, ptr %arrayidx.i5.i, align 4
  br label %_ZNK6vectorI3mpzLb0EjE4sizeEv.exit7.i

_ZNK6vectorI3mpzLb0EjE4sizeEv.exit7.i:            ; preds = %if.end.i4.i, %_ZNK6vectorI3mpzLb0EjE4sizeEv.exit.i
  %retval.0.i6.i = phi i32 [ %3, %if.end.i4.i ], [ 0, %_ZNK6vectorI3mpzLb0EjE4sizeEv.exit.i ]
  %call5.i3 = invoke noundef zeroext i1 @_ZN11upolynomial12core_manager2eqEjPK3mpzjS3_(ptr noundef nonnull align 8 dereferenceable(272) %zp_upm, i32 noundef %retval.0.i.i, ptr noundef %0, i32 noundef %retval.0.i6.i, ptr noundef %2)
          to label %cleanup unwind label %lpad

lpad:                                             ; preds = %_ZNK6vectorI3mpzLb0EjE4sizeEv.exit7.i, %entry
  %4 = landingpad { ptr, i32 }
          cleanup
  call void @_ZN11upolynomial21scoped_numeral_vectorD2Ev(ptr noundef nonnull align 8 dereferenceable(16) %A_pe_p) #16
  resume { ptr, i32 } %4

cleanup:                                          ; preds = %_ZNK6vectorI3mpzLb0EjE4sizeEv.exit7.i
  %5 = load ptr, ptr %A_pe_p, align 8
  %cmp.i.i.i.i = icmp eq ptr %5, null
  br i1 %cmp.i.i.i.i, label %_ZN11upolynomial21scoped_numeral_vectorD2Ev.exit, label %_ZNK6vectorI3mpzLb0EjE4sizeEv.exit.i.i.i

_ZNK6vectorI3mpzLb0EjE4sizeEv.exit.i.i.i:         ; preds = %cleanup
  %arrayidx.i.i.i.i = getelementptr inbounds i8, ptr %5, i64 -4
  %6 = load i32, ptr %arrayidx.i.i.i.i, align 4
  %cmp6.not.i.i.i = icmp eq i32 %6, 0
  br i1 %cmp6.not.i.i.i, label %invoke.cont.i.i, label %for.body.lr.ph.i.i.i

for.body.lr.ph.i.i.i:                             ; preds = %_ZNK6vectorI3mpzLb0EjE4sizeEv.exit.i.i.i
  %wide.trip.count.i.i.i = zext i32 %6 to i64
  br label %for.body.i.i.i

for.body.i.i.i:                                   ; preds = %.noexc.i.i, %for.body.lr.ph.i.i.i
  %indvars.iv.i.i.i = phi i64 [ 0, %for.body.lr.ph.i.i.i ], [ %indvars.iv.next.i.i.i, %.noexc.i.i ]
  %7 = load ptr, ptr %m_manager.i.i, align 8
  %8 = load ptr, ptr %A_pe_p, align 8
  %arrayidx.i3.i.i.i = getelementptr inbounds %class.mpz, ptr %8, i64 %indvars.iv.i.i.i
  %9 = load ptr, ptr %7, align 8
  invoke void @_ZN11mpz_managerILb0EE3delEPS0_R3mpz(ptr noundef nonnull %9, ptr noundef nonnull align 8 dereferenceable(16) %arrayidx.i3.i.i.i)
          to label %.noexc.i.i unwind label %terminate.lpad.i.i

.noexc.i.i:                                       ; preds = %for.body.i.i.i
  %indvars.iv.next.i.i.i = add nuw nsw i64 %indvars.iv.i.i.i, 1
  %exitcond.not.i.i.i = icmp eq i64 %indvars.iv.next.i.i.i, %wide.trip.count.i.i.i
  br i1 %exitcond.not.i.i.i, label %for.end.i.i.i, label %for.body.i.i.i, !llvm.loop !7

for.end.i.i.i:                                    ; preds = %.noexc.i.i
  %.pre.i.i.i = load ptr, ptr %A_pe_p, align 8
  %tobool.not.i.i.i.i = icmp eq ptr %.pre.i.i.i, null
  br i1 %tobool.not.i.i.i.i, label %_ZN11upolynomial21scoped_numeral_vectorD2Ev.exit, label %invoke.cont.i.i

invoke.cont.i.i:                                  ; preds = %for.end.i.i.i, %_ZNK6vectorI3mpzLb0EjE4sizeEv.exit.i.i.i
  %10 = phi ptr [ %.pre.i.i.i, %for.end.i.i.i ], [ %5, %_ZNK6vectorI3mpzLb0EjE4sizeEv.exit.i.i.i ]
  %arrayidx.i4.i.i.i = getelementptr inbounds i8, ptr %10, i64 -4
  store i32 0, ptr %arrayidx.i4.i.i.i, align 4
  %.pr.i.i = load ptr, ptr %A_pe_p, align 8
  %tobool.not.i.i.i.i.i = icmp eq ptr %.pr.i.i, null
  br i1 %tobool.not.i.i.i.i.i, label %_ZN11upolynomial21scoped_numeral_vectorD2Ev.exit, label %if.then.i.i.i.i.i

if.then.i.i.i.i.i:                                ; preds = %invoke.cont.i.i
  %add.ptr.i.i.i.i.i.i = getelementptr inbounds i8, ptr %.pr.i.i, i64 -8
  invoke void @_ZN6memory10deallocateEPv(ptr noundef nonnull %add.ptr.i.i.i.i.i.i)
          to label %_ZN11upolynomial21scoped_numeral_vectorD2Ev.exit unwind label %terminate.lpad.i.i.i.i

terminate.lpad.i.i.i.i:                           ; preds = %if.then.i.i.i.i.i
  %11 = landingpad { ptr, i32 }
          catch ptr null
  %12 = extractvalue { ptr, i32 } %11, 0
  call void @__clang_call_terminate(ptr %12) #18
  unreachable

terminate.lpad.i.i:                               ; preds = %for.body.i.i.i
  %13 = landingpad { ptr, i32 }
          catch ptr null
  %14 = extractvalue { ptr, i32 } %13, 0
  call void @__clang_call_terminate(ptr %14) #18
  unreachable

_ZN11upolynomial21scoped_numeral_vectorD2Ev.exit: ; preds = %cleanup, %for.end.i.i.i, %invoke.cont.i.i, %if.then.i.i.i.i.i
  ret i1 %call5.i3
}